; ModuleID = '51/199.c'
source_filename = "51/199.c"
target datalayout = "e-m:e-p270:32:32-p271:32:32-p272:64:64-i64:64-f80:128-n8:16:32:64-S128"
target triple = "x86_64-pc-linux-gnu"

@.str = private unnamed_addr constant [4 x i8] c"%d\0A\00", align 1
@.str.1 = private unnamed_addr constant [3 x i8] c"NO\00", align 1

; Function Attrs: noinline nounwind uwtable
define dso_local i32 @main() #0 {
  %1 = alloca i32, align 4
  %2 = alloca [510 x i8], align 16
  %3 = alloca [510 x [6 x i8]], align 16
  %4 = alloca [510 x i32], align 16
  %5 = alloca i32, align 4
  %6 = alloca i32, align 4
  %7 = alloca i32, align 4
  %8 = alloca i32, align 4
  %9 = alloca i32, align 4
  %10 = alloca i32, align 4
  store i32 0, i32* %1, align 4
  %11 = bitcast [510 x i32]* %4 to i8*
  call void @llvm.memset.p0i8.i64(i8* align 16 %11, i8 0, i64 2040, i1 false)
  store i32 0, i32* %10, align 4
  %12 = call i32 (i8*, ...) @__isoc99_scanf(i8* getelementptr inbounds ([4 x i8], [4 x i8]* @.str, i64 0, i64 0), i32* %8)
  %13 = getelementptr inbounds [510 x i8], [510 x i8]* %2, i64 0, i64 0
  %14 = call i32 (i8*, ...) bitcast (i32 (...)* @gets to i32 (i8*, ...)*)(i8* %13)
  %15 = getelementptr inbounds [510 x i8], [510 x i8]* %2, i64 0, i64 0
  %16 = call i64 @strlen(i8* %15) #4
  %17 = trunc i64 %16 to i32
  store i32 %17, i32* %9, align 4
  store i32 0, i32* %5, align 4
  br label %18

18:                                               ; preds = %52, %0
  %19 = load i32, i32* %5, align 4
  %20 = load i32, i32* %9, align 4
  %21 = load i32, i32* %8, align 4
  %22 = sub nsw i32 %20, %21
  %23 = icmp sle i32 %19, %22
  br i1 %23, label %24, label %55

24:                                               ; preds = %18
  store i32 0, i32* %6, align 4
  br label %25

25:                                               ; preds = %42, %24
  %26 = load i32, i32* %6, align 4
  %27 = load i32, i32* %8, align 4
  %28 = icmp slt i32 %26, %27
  br i1 %28, label %29, label %45

29:                                               ; preds = %25
  %30 = load i32, i32* %5, align 4
  %31 = load i32, i32* %6, align 4
  %32 = add nsw i32 %30, %31
  %33 = sext i32 %32 to i64
  %34 = getelementptr inbounds [510 x i8], [510 x i8]* %2, i64 0, i64 %33
  %35 = load i8, i8* %34, align 1
  %36 = load i32, i32* %5, align 4
  %37 = sext i32 %36 to i64
  %38 = getelementptr inbounds [510 x [6 x i8]], [510 x [6 x i8]]* %3, i64 0, i64 %37
  %39 = load i32, i32* %6, align 4
  %40 = sext i32 %39 to i64
  %41 = getelementptr inbounds [6 x i8], [6 x i8]* %38, i64 0, i64 %40
  store i8 %35, i8* %41, align 1
  br label %42

42:                                               ; preds = %29
  %43 = load i32, i32* %6, align 4
  %44 = add nsw i32 %43, 1
  store i32 %44, i32* %6, align 4
  br label %25

45:                                               ; preds = %25
  %46 = load i32, i32* %5, align 4
  %47 = sext i32 %46 to i64
  %48 = getelementptr inbounds [510 x [6 x i8]], [510 x [6 x i8]]* %3, i64 0, i64 %47
  %49 = load i32, i32* %6, align 4
  %50 = sext i32 %49 to i64
  %51 = getelementptr inbounds [6 x i8], [6 x i8]* %48, i64 0, i64 %50
  store i8 0, i8* %51, align 1
  br label %52

52:                                               ; preds = %45
  %53 = load i32, i32* %5, align 4
  %54 = add nsw i32 %53, 1
  store i32 %54, i32* %5, align 4
  br label %18

55:                                               ; preds = %18
  store i32 0, i32* %5, align 4
  br label %56

56:                                               ; preds = %108, %55
  %57 = load i32, i32* %5, align 4
  %58 = load i32, i32* %9, align 4
  %59 = load i32, i32* %8, align 4
  %60 = sub nsw i32 %58, %59
  %61 = icmp sle i32 %57, %60
  br i1 %61, label %62, label %111

62:                                               ; preds = %56
  store i32 1, i32* %7, align 4
  store i32 0, i32* %6, align 4
  br label %63

63:                                               ; preds = %95, %62
  %64 = load i32, i32* %6, align 4
  %65 = load i32, i32* %5, align 4
  %66 = icmp slt i32 %64, %65
  br i1 %66, label %67, label %98

67:                                               ; preds = %63
  %68 = load i32, i32* %6, align 4
  %69 = sext i32 %68 to i64
  %70 = getelementptr inbounds [510 x i32], [510 x i32]* %4, i64 0, i64 %69
  %71 = load i32, i32* %70, align 4
  %72 = icmp ne i32 %71, -1
  br i1 %72, label %73, label %94

73:                                               ; preds = %67
  %74 = load i32, i32* %5, align 4
  %75 = sext i32 %74 to i64
  %76 = getelementptr inbounds [510 x [6 x i8]], [510 x [6 x i8]]* %3, i64 0, i64 %75
  %77 = getelementptr inbounds [6 x i8], [6 x i8]* %76, i64 0, i64 0
  %78 = load i32, i32* %6, align 4
  %79 = sext i32 %78 to i64
  %80 = getelementptr inbounds [510 x [6 x i8]], [510 x [6 x i8]]* %3, i64 0, i64 %79
  %81 = getelementptr inbounds [6 x i8], [6 x i8]* %80, i64 0, i64 0
  %82 = call i32 @strcmp(i8* %77, i8* %81) #4
  %83 = icmp eq i32 %82, 0
  br i1 %83, label %84, label %93

84:                                               ; preds = %73
  %85 = load i32, i32* %6, align 4
  %86 = sext i32 %85 to i64
  %87 = getelementptr inbounds [510 x i32], [510 x i32]* %4, i64 0, i64 %86
  %88 = load i32, i32* %87, align 4
  %89 = add nsw i32 %88, 1
  store i32 %89, i32* %87, align 4
  %90 = load i32, i32* %5, align 4
  %91 = sext i32 %90 to i64
  %92 = getelementptr inbounds [510 x i32], [510 x i32]* %4, i64 0, i64 %91
  store i32 -1, i32* %92, align 4
  store i32 0, i32* %7, align 4
  br label %98

93:                                               ; preds = %73
  br label %94

94:                                               ; preds = %93, %67
  br label %95

95:                                               ; preds = %94
  %96 = load i32, i32* %6, align 4
  %97 = add nsw i32 %96, 1
  store i32 %97, i32* %6, align 4
  br label %63

98:                                               ; preds = %84, %63
  %99 = load i32, i32* %7, align 4
  %100 = icmp ne i32 %99, 0
  br i1 %100, label %101, label %107

101:                                              ; preds = %98
  %102 = load i32, i32* %5, align 4
  %103 = sext i32 %102 to i64
  %104 = getelementptr inbounds [510 x i32], [510 x i32]* %4, i64 0, i64 %103
  %105 = load i32, i32* %104, align 4
  %106 = add nsw i32 %105, 1
  store i32 %106, i32* %104, align 4
  br label %107

107:                                              ; preds = %101, %98
  br label %108

108:                                              ; preds = %107
  %109 = load i32, i32* %5, align 4
  %110 = add nsw i32 %109, 1
  store i32 %110, i32* %5, align 4
  br label %56

111:                                              ; preds = %56
  store i32 0, i32* %5, align 4
  br label %112

112:                                              ; preds = %131, %111
  %113 = load i32, i32* %5, align 4
  %114 = load i32, i32* %9, align 4
  %115 = load i32, i32* %8, align 4
  %116 = sub nsw i32 %114, %115
  %117 = icmp sle i32 %113, %116
  br i1 %117, label %118, label %134

118:                                              ; preds = %112
  %119 = load i32, i32* %5, align 4
  %120 = sext i32 %119 to i64
  %121 = getelementptr inbounds [510 x i32], [510 x i32]* %4, i64 0, i64 %120
  %122 = load i32, i32* %121, align 4
  %123 = load i32, i32* %10, align 4
  %124 = icmp sgt i32 %122, %123
  br i1 %124, label %125, label %130

125:                                              ; preds = %118
  %126 = load i32, i32* %5, align 4
  %127 = sext i32 %126 to i64
  %128 = getelementptr inbounds [510 x i32], [510 x i32]* %4, i64 0, i64 %127
  %129 = load i32, i32* %128, align 4
  store i32 %129, i32* %10, align 4
  br label %130

130:                                              ; preds = %125, %118
  br label %131

131:                                              ; preds = %130
  %132 = load i32, i32* %5, align 4
  %133 = add nsw i32 %132, 1
  store i32 %133, i32* %5, align 4
  br label %112

134:                                              ; preds = %112
  %135 = load i32, i32* %10, align 4
  %136 = icmp sgt i32 %135, 1
  br i1 %136, label %137, label %164

137:                                              ; preds = %134
  %138 = load i32, i32* %10, align 4
  %139 = call i32 (i8*, ...) @printf(i8* getelementptr inbounds ([4 x i8], [4 x i8]* @.str, i64 0, i64 0), i32 %138)
  store i32 0, i32* %5, align 4
  br label %140

140:                                              ; preds = %160, %137
  %141 = load i32, i32* %5, align 4
  %142 = load i32, i32* %9, align 4
  %143 = load i32, i32* %8, align 4
  %144 = sub nsw i32 %142, %143
  %145 = icmp sle i32 %141, %144
  br i1 %145, label %146, label %163

146:                                              ; preds = %140
  %147 = load i32, i32* %5, align 4
  %148 = sext i32 %147 to i64
  %149 = getelementptr inbounds [510 x i32], [510 x i32]* %4, i64 0, i64 %148
  %150 = load i32, i32* %149, align 4
  %151 = load i32, i32* %10, align 4
  %152 = icmp eq i32 %150, %151
  br i1 %152, label %153, label %159

153:                                              ; preds = %146
  %154 = load i32, i32* %5, align 4
  %155 = sext i32 %154 to i64
  %156 = getelementptr inbounds [510 x [6 x i8]], [510 x [6 x i8]]* %3, i64 0, i64 %155
  %157 = getelementptr inbounds [6 x i8], [6 x i8]* %156, i64 0, i64 0
  %158 = call i32 @puts(i8* %157)
  br label %159

159:                                              ; preds = %153, %146
  br label %160

160:                                              ; preds = %159
  %161 = load i32, i32* %5, align 4
  %162 = add nsw i32 %161, 1
  store i32 %162, i32* %5, align 4
  br label %140

163:                                              ; preds = %140
  br label %166

164:                                              ; preds = %134
  %165 = call i32 (i8*, ...) @printf(i8* getelementptr inbounds ([3 x i8], [3 x i8]* @.str.1, i64 0, i64 0))
  br label %166

166:                                              ; preds = %164, %163
  %167 = load i32, i32* %1, align 4
  ret i32 %167
}

; Function Attrs: argmemonly nounwind willreturn
declare void @llvm.memset.p0i8.i64(i8* nocapture writeonly, i8, i64, i1 immarg) #1

declare dso_local i32 @__isoc99_scanf(i8*, ...) #2

declare dso_local i32 @gets(...) #2

; Function Attrs: nounwind readonly
declare dso_local i64 @strlen(i8*) #3

; Function Attrs: nounwind readonly
declare dso_local i32 @strcmp(i8*, i8*) #3

declare dso_local i32 @printf(i8*, ...) #2

declare dso_local i32 @puts(i8*) #2


!llvm.module.flags = !{!0}
!llvm.ident = !{!1}

!0 = !{i32 1, !"wchar_size", i32 4}
!1 = !{!"clang version 10.0.0-4ubuntu1 "}
